(lp0
(dp1
I0
I0
sI161
I0
sI68
I0
sI6
I0
sI236
I0
sI108
I0
sI149
I0
sI54
I0
sI245
I0
sa(dp2
I72
I0
sI1
I0
sI102
I0
sI38
I0
sI249
I0
sa(dp3
I104
I0
sI2
I0
sI31
I0
sa(dp4
I3
I0
sI22
I0
sI175
I0
sa(dp5
I147
I0
sI4
I0
sa(dp6
I257
I0
sI170
I0
sI92
I0
sI5
I0
sI71
I0
sag1
a(dp7
I130
I0
sI7
I0
sa(dp8
I8
I0
sI131
I0
sa(dp9
I163
I0
sI103
I0
sI9
I0
sI49
I0
sI186
I0
sI59
I0
sa(dp10
I73
I0
sI10
I0
sI173
I0
sI79
I0
sI50
I0
sI56
I0
sI28
I0
sI157
I0
sI255
I0
sa(dp11
I164
I0
sI133
I0
sI232
I0
sI105
I0
sI74
I0
sI11
I0
sI206
I0
sI114
I0
sI117
I0
sI220
I0
sI61
I0
sI213
I0
sa(dp12
I256
I0
sI194
I0
sI165
I0
sI134
I0
sI233
I0
sI75
I0
sI12
I0
sI141
I0
sI207
I0
sI16
I0
sI115
I0
sI214
I0
sI119
I0
sI216
I0
sa(dp13
I160
I0
sI229
I0
sI199
I0
sI205
I0
sI13
I0
sI208
I0
sI116
I0
sI88
I0
sI239
I0
sa(dp14
I241
I0
sI136
I0
sI201
I0
sI14
I0
sI240
I0
sI145
I0
sI55
I0
sI89
I0
sI189
I0
sI158
I0
sa(dp15
I225
I0
sI15
I0
sag12
a(dp16
I17
I0
sI84
I0
sI37
I0
sI150
I0
sa(dp17
I48
I0
sI18
I0
sI251
I0
sa(dp18
I40
I0
sI19
I0
sa(dp19
I139
I0
sI20
I0
sI110
I0
sa(dp20
I252
I0
sI21
I0
sag4
a(dp21
I226
I0
sI35
I0
sI231
I0
sI106
I0
sI82
I0
sI23
I0
sI248
I0
sa(dp22
I24
I0
sI188
I0
sI100
I0
sa(dp23
I25
I0
sI45
I0
sa(dp24
I185
I0
sI26
I0
sa(dp25
I121
I0
sI27
I0
sI94
I0
sag10
a(dp26
I29
I0
sI86
I0
sa(dp27
I30
I0
sI87
I0
sag3
a(dp28
I32
I0
sI154
I0
sI171
I0
sI95
I0
sa(dp29
I192
I0
sI33
I0
sa(dp30
I34
I0
sI146
I0
sag21
a(dp31
I57
I0
sI36
I0
sag16
ag2
a(dp32
I98
I0
sI260
I0
sI69
I0
sI39
I0
sI162
I0
sI155
I0
sI191
I0
sag18
a(dp33
I41
I0
sI222
I0
sa(dp34
I42
I0
sI123
I0
sa(dp35
I43
I0
sI172
I0
sa(dp36
I254
I0
sI219
I0
sI44
I0
sI118
I0
sI70
I0
sag23
a(dp37
I137
I0
sI46
I0
sI91
I0
sI124
I0
sI221
I0
sI159
I0
sa(dp38
I259
I0
sI126
I0
sI78
I0
sI47
I0
sag17
ag9
ag10
a(dp39
I67
I0
sI51
I0
sa(dp40
I112
I0
sI209
I0
sI250
I0
sI52
I0
sI135
I0
sa(dp41
I64
I0
sI53
I0
sag1
ag14
ag10
ag31
a(dp42
I184
I0
sI58
I0
sag9
a(dp43
I132
I0
sI140
I0
sI212
I0
sI215
I0
sI153
I0
sI60
I0
sag11
a(dp44
I144
I0
sI217
I0
sI210
I0
sI197
I0
sI62
I0
sa(dp45
I195
I0
sI63
I0
sag41
a(dp46
I65
I0
sI243
I0
sI111
I0
sa(dp47
I66
I0
sI166
I0
sI262
I0
sI202
I0
sI204
I0
sI113
I0
sag39
ag1
ag32
ag36
ag6
ag2
ag10
ag11
ag12
a(dp48
I90
I0
sI76
I0
sa(dp49
I235
I0
sI77
I0
sag38
ag10
a(dp50
I80
I0
sI190
I0
sa(dp51
I81
I0
sI244
I0
sag21
a(dp52
I234
I0
sI83
I0
sI238
I0
sag16
a(dp53
I120
I0
sI169
I0
sI156
I0
sI85
I0
sag26
ag27
ag13
ag14
ag48
ag37
ag6
a(dp54
I258
I0
sI93
I0
sI125
I0
sag25
ag28
a(dp55
I96
I0
sI122
I0
sI174
I0
sa(dp56
I97
I0
sI261
I0
sag32
a(dp57
I129
I0
sI99
I0
sag22
a(dp58
I176
I0
sI179
I0
sI101
I0
sag2
ag9
ag3
ag11
ag21
a(dp59
I107
I0
sI148
I0
sag1
a(dp60
I109
I0
sI223
I0
sag19
ag46
ag40
ag47
ag11
ag12
ag13
ag11
ag36
ag12
ag53
ag25
ag55
ag34
ag37
ag54
ag38
a(dp61
I182
I0
sI127
I0
sa(dp62
I128
I0
sI187
I0
sag57
ag7
ag8
ag43
ag11
ag12
ag40
ag14
ag37
a(dp63
I138
I0
sI143
I0
sag19
ag43
ag12
a(dp64
I266
I0
sI142
I0
sag63
ag44
ag14
ag30
ag5
ag59
ag1
ag16
a(dp65
I183
I0
sI151
I0
sa(dp66
I152
I0
sI218
I0
sI267
I0
sag43
ag28
ag32
ag53
ag10
ag14
ag37
ag13
ag1
ag32
ag9
ag11
ag12
ag47
a(dp67
I264
I0
sI181
I0
sI167
I0
sa(dp68
I168
I0
sI228
I0
sag53
ag6
ag28
ag35
ag10
ag55
ag4
ag58
a(dp69
I177
I0
sI263
I0
sI247
I0
sa(dp70
I178
I0
sI227
I0
sag58
a(dp71
I180
I0
sI246
I0
sag67
ag61
ag65
ag42
ag24
ag9
ag62
ag22
ag14
ag50
ag32
ag29
a(dp72
I193
I0
sI203
I0
sag12
ag45
a(dp73
I196
I0
sI237
I0
sag44
a(dp74
I242
I0
sI198
I0
sag13
a(dp75
I200
I0
sI224
I0
sag14
ag47
ag72
ag47
ag13
ag11
ag12
ag13
ag40
ag44
a(dp76
I265
I0
sI211
I0
sag43
ag11
ag12
ag43
ag12
ag44
ag66
ag36
ag11
ag37
ag33
ag60
ag75
ag15
ag21
ag70
ag68
ag13
a(dp77
I253
I0
sI230
I0
sag21
ag11
ag12
ag52
ag49
ag1
ag73
ag52
ag13
ag14
ag14
ag74
ag46
ag51
ag1
ag71
ag69
ag21
ag2
ag40
ag17
ag20
ag77
ag36
ag10
ag12
ag6
ag54
ag38
ag32
ag56
ag47
ag69
ag67
ag76
ag64
ag66
a.(lp0
(dp1
I0
I0
sI1
I0
sI2
I0
sag1
ag1
a(dp2
I3
I0
sI4
I0
sI5
I0
sI6
I0
sI7
I0
sI8
I0
sI9
I0
sI10
I0
sag2
ag2
ag2
ag2
ag2
ag2
ag2
a(dp3
I11
I0
sa(dp4
I12
I0
sI13
I0
sI14
I0
sI15
I0
sag4
ag4
ag4
a(dp5
I16
I0
sa(dp6
I17
I0
sa(dp7
I18
I0
sI19
I0
sI20
I0
sI21
I0
sag7
ag7
ag7
a(dp8
I22
I0
sI23
I0
sI24
I0
sI25
I0
sI26
I0
sI27
I0
sI28
I0
sI29
I0
sI30
I0
sag8
ag8
ag8
ag8
ag8
ag8
ag8
ag8
a(dp9
I31
I0
sa(dp10
I32
I0
sI33
I0
sag10
a(dp11
I34
I0
sa(dp12
I35
I0
sa(dp13
I36
I0
sI37
I0
sI38
I0
sag13
ag13
a(dp14
I39
I0
sa(dp15
I40
I0
sa(dp16
I41
I0
sI42
I0
sI43
I0
sag16
ag16
a(dp17
I44
I0
sI45
I0
sI46
I0
sI47
I0
sI48
I0
sI49
I0
sI50
I0
sag17
ag17
ag17
ag17
ag17
ag17
a(dp18
I51
I0
sa(dp19
I52
I0
sa(dp20
I56
I0
sI53
I0
sI54
I0
sI55
I0
sag20
ag20
ag20
a(dp21
I57
I0
sI58
I0
sI59
I0
sag21
ag21
a(dp22
I60
I0
sa(dp23
I61
I0
sI62
I0
sag23
a(dp24
I64
I0
sI65
I0
sI66
I0
sI67
I0
sI63
I0
sag24
ag24
ag24
ag24
a(dp25
I68
I0
sa(dp26
I69
I0
sa(dp27
I72
I0
sI73
I0
sI70
I0
sI71
I0
sag27
ag27
ag27
a(dp28
I74
I0
sI75
I0
sI76
I0
sI77
I0
sI78
I0
sI79
I0
sag28
ag28
ag28
ag28
ag28
a(dp29
I80
I0
sa(dp30
I81
I0
sa(dp31
I82
I0
sI83
I0
sI84
I0
sI85
I0
sI86
I0
sI87
I0
sag31
ag31
ag31
ag31
ag31
a(dp32
I88
I0
sI89
I0
sag32
a(dp33
I96
I0
sI97
I0
sI90
I0
sI91
I0
sI92
I0
sI93
I0
sI94
I0
sI95
I0
sag33
ag33
ag33
ag33
ag33
ag33
ag33
a(dp34
I98
I0
sa(dp35
I99
I0
sI100
I0
sI101
I0
sI102
I0
sI103
I0
sI104
I0
sag35
ag35
ag35
ag35
ag35
a(dp36
I105
I0
sa(dp37
I106
I0
sI107
I0
sI108
I0
sag37
ag37
a(dp38
I109
I0
sa(dp39
I110
I0
sa(dp40
I112
I0
sI113
I0
sI111
I0
sag40
ag40
a(dp41
I114
I0
sI115
I0
sI116
I0
sag41
ag41
a(dp42
I120
I0
sI117
I0
sI118
I0
sI119
I0
sag42
ag42
ag42
a(dp43
I121
I0
sI122
I0
sag43
a(dp44
I123
I0
sI124
I0
sI125
I0
sI126
I0
sI127
I0
sag44
ag44
ag44
ag44
a(dp45
I128
I0
sa(dp46
I129
I0
sa(dp47
I130
I0
sI131
I0
sag47
a(dp48
I136
I0
sI132
I0
sI133
I0
sI134
I0
sI135
I0
sag48
ag48
ag48
ag48
a(dp49
I137
I0
sI138
I0
sI139
I0
sag49
ag49
a(dp50
I140
I0
sI141
I0
sI142
I0
sI143
I0
sI144
I0
sI145
I0
sag50
ag50
ag50
ag50
ag50
a(dp51
I146
I0
sa(dp52
I147
I0
sI148
I0
sI149
I0
sag52
ag52
a(dp53
I150
I0
sa(dp54
I152
I0
sI151
I0
sag54
a(dp55
I153
I0
sa(dp56
I154
I0
sI155
I0
sI156
I0
sI157
I0
sag56
ag56
ag56
a(dp57
I158
I0
sa(dp58
I160
I0
sI159
I0
sag58
a(dp59
I161
I0
sI162
I0
sI163
I0
sag59
ag59
a(dp60
I164
I0
sI165
I0
sI166
I0
sag60
ag60
a(dp61
I167
I0
sa(dp62
I168
I0
sI169
I0
sag62
a(dp63
I170
I0
sI171
I0
sI172
I0
sI173
I0
sag63
ag63
ag63
a(dp64
I174
I0
sa(dp65
I176
I0
sI175
I0
sag65
a(dp66
I177
I0
sa(dp67
I178
I0
sI179
I0
sI180
I0
sag67
ag67
a(dp68
I181
I0
sa(dp69
I182
I0
sa(dp70
I183
I0
sa(dp71
I184
I0
sI185
I0
sI186
I0
sag71
ag71
a(dp72
I187
I0
sa(dp73
I188
I0
sa(dp74
I189
I0
sa(dp75
I190
I0
sa(dp76
I192
I0
sI191
I0
sag76
a(dp77
I193
I0
sa(dp78
I194
I0
sa(dp79
I195
I0
sI196
I0
sag79
a(dp80
I197
I0
sa(dp81
I200
I0
sI201
I0
sI202
I0
sI198
I0
sI199
I0
sag81
ag81
ag81
ag81
a(dp82
I203
I0
sI204
I0
sag82
a(dp83
I205
I0
sa(dp84
I208
I0
sI209
I0
sI210
I0
sI206
I0
sI207
I0
sag84
ag84
ag84
ag84
a(dp85
I211
I0
sa(dp86
I212
I0
sI213
I0
sI214
I0
sag86
ag86
a(dp87
I216
I0
sI217
I0
sI218
I0
sI215
I0
sag87
ag87
ag87
a(dp88
I219
I0
sa(dp89
I220
I0
sI221
I0
sag89
a(dp90
I224
I0
sI222
I0
sI223
I0
sag90
ag90
a(dp91
I225
I0
sa(dp92
I226
I0
sI227
I0
sag92
a(dp93
I228
I0
sI229
I0
sag93
a(dp94
I230
I0
sI231
I0
sI232
I0
sI233
I0
sI234
I0
sI235
I0
sI236
I0
sI237
I0
sag94
ag94
ag94
ag94
ag94
ag94
ag94
a(dp95
I240
I0
sI238
I0
sI239
I0
sag95
ag95
a(dp96
I241
I0
sa(dp97
I242
I0
sI243
I0
sI244
I0
sI245
I0
sI246
I0
sag97
ag97
ag97
ag97
a(dp98
I247
I0
sa(dp99
I248
I0
sa(dp100
I249
I0
sa(dp101
I250
I0
sI251
I0
sI252
I0
sag101
ag101
a(dp102
I253
I0
sI254
I0
sI255
I0
sag102
ag102
a(dp103
I256
I0
sI257
I0
sI258
I0
sI259
I0
sI260
I0
sI261
I0
sI262
I0
sag103
ag103
ag103
ag103
ag103
ag103
a(dp104
I264
I0
sI265
I0
sI263
I0
sag104
ag104
a(dp105
I266
I0
sI267
I0
sag105
a.(lp0
I244
aI235
aI252
aI226
aI241
aI243
aI202
aI232
aI220
aI226
aI238
aI250
aI211
aI236
aI220
aI97
aI164
aI182
aI158
aI168
aI167
aI143
aI183
aI184
aI220
aI170
aI189
aI208
aI220
aI241
aI173
aI179
aI187
aI153
aI213
aI208
aI186
aI86
aI120
aI82
aI121
aI165
aI136
aI112
aI174
aI153
aI173
aI178
aI230
aI228
aI208
aI231
aI223
aI206
aI234
aI163
aI154
aI173
aI197
aI248
aI217
aI175
aI122
aI141
aI131
aI244
aI230
aI241
aI238
aI218
aI213
aI139
aI131
aI152
aI86
aI92
aI211
aI122
aI106
aI202
aI196
aI155
aI150
aI140
aI134
aI152
aI186
aI94
aI207
aI170
aI197
aI234
aI121
aI184
aI131
aI149
aI218
aI93
aI151
aI111
aI181
aI195
aI212
aI220
aI209
aI187
aI221
aI236
aI255
aI89
aI78
aI195
aI217
aI234
aI198
aI183
aI239
aI223
aI168
aI210
aI115
aI154
aI215
aI216
aI216
aI119
aI201
aI138
aI250
aI101
aI148
aI175
aI181
aI209
aI235
aI166
aI170
aI105
aI145
aI88
aI143
aI76
aI199
aI100
aI149
aI163
aI205
aI177
aI205
aI176
aI116
aI141
aI144
aI95
aI197
aI217
aI189
aI202
aI126
aI101
aI227
aI156
aI165
aI86
aI180
aI192
aI135
aI169
aI208
aI140
aI190
aI121
aI117
aI144
aI109
aI136
aI123
aI201
aI130
aI165
aI165
aI101
aI204
aI78
aI101
aI174
aI192
aI206
aI212
aI138
aI123
aI132
aI161
aI192
aI235
aI190
aI141
aI92
aI192
aI254
aI107
aI239
aI227
aI158
aI206
aI89
aI182
aI161
aI138
aI130
aI122
aI162
aI179
aI173
aI171
aI238
aI210
aI180
aI201
aI195
aI186
aI204
aI182
aI107
aI157
aI211
aI252
aI215
aI192
aI172
aI210
aI207
aI110
aI206
aI98
aI150
aI185
aI205
aI140
aI120
aI84
aI199
aI233
aI246
aI132
aI220
aI236
aI138
aI229
aI206
aI191
aI174
aI71
aI183
aI215
aI155
aI114
aI181
aI155
aI138
aI182
aI115
aI204
aI158
aI175
aI199
aI220
aI153
a.