(lp0
(dp1
I0
I0
sI210
I0
sa(dp2
I1
I0
sI322
I0
sI131
I0
sI8
I0
sI74
I0
sI140
I0
sI46
I0
sI86
I0
sI313
I0
sI218
I0
sI188
I0
sI202
I0
sa(dp3
I2
I0
sI91
I0
sI133
I0
sI326
I0
sI47
I0
sa(dp4
I3
I0
sI36
I0
sI135
I0
sa(dp5
I240
I0
sI28
I0
sI4
I0
sa(dp6
I186
I0
sI5
I0
sa(dp7
I194
I0
sI78
I0
sI6
I0
sI253
I0
sa(dp8
I233
I0
sI90
I0
sI338
I0
sI117
I0
sI7
I0
sag2
a(dp9
I9
I0
sI164
I0
sa(dp10
I10
I0
sI165
I0
sa(dp11
I134
I0
sI11
I0
sI79
I0
sI63
I0
sI221
I0
sI255
I0
sa(dp12
I64
I0
sI33
I0
sI101
I0
sI76
I0
sI12
I0
sI237
I0
sI335
I0
sI209
I0
sI124
I0
sI93
I0
sa(dp13
I66
I0
sI167
I0
sI136
I0
sI295
I0
sI13
I0
sI111
I0
sI336
I0
sI81
I0
sI205
I0
sI148
I0
sI278
I0
sI152
I0
sI308
I0
sI223
I0
sI284
I0
sI248
I0
sI95
I0
sa(dp14
I128
I0
sI171
I0
sI260
I0
sI230
I0
sI75
I0
sI14
I0
sI271
I0
sI113
I0
sI18
I0
sI211
I0
sI334
I0
sI277
I0
sI184
I0
sI251
I0
sI317
I0
sI318
I0
sa(dp15
I96
I0
sI224
I0
sI67
I0
sI263
I0
sI104
I0
sI288
I0
sI337
I0
sI15
I0
sI168
I0
sI20
I0
sI149
I0
sI279
I0
sI180
I0
sI154
I0
sI200
I0
sI285
I0
sI309
I0
sa(dp16
I112
I0
sI69
I0
sI201
I0
sI174
I0
sI304
I0
sI16
I0
sI280
I0
sI276
I0
sI150
I0
sI216
I0
sI250
I0
sI316
I0
sa(dp17
I17
I0
sI347
I0
sI340
I0
sI70
I0
sI241
I0
sag14
a(dp18
I299
I0
sI19
I0
sI172
I0
sag15
a(dp19
I193
I0
sI107
I0
sI45
I0
sI21
I0
sI55
I0
sI312
I0
sI189
I0
sa(dp20
I212
I0
sI141
I0
sI22
I0
sa(dp21
I289
I0
sI68
I0
sI229
I0
sI292
I0
sI264
I0
sI73
I0
sI332
I0
sI114
I0
sI53
I0
sI23
I0
sI137
I0
sI89
I0
sI286
I0
sa(dp22
I24
I0
sI328
I0
sI62
I0
sa(dp23
I25
I0
sI50
I0
sa(dp24
I176
I0
sI217
I0
sI26
I0
sI143
I0
sa(dp25
I177
I0
sI27
I0
sI329
I0
sag5
a(dp26
I65
I0
sI325
I0
sI103
I0
sI40
I0
sI138
I0
sI199
I0
sI44
I0
sI301
I0
sI307
I0
sI29
I0
sa(dp27
I129
I0
sI30
I0
sI257
I0
sa(dp28
I41
I0
sI106
I0
sI130
I0
sI31
I0
sa(dp29
I32
I0
sI56
I0
sI156
I0
sI119
I0
sag12
a(dp30
I34
I0
sI109
I0
sI125
I0
sa(dp31
I256
I0
sI35
I0
sI110
I0
sag4
a(dp32
I225
I0
sI37
I0
sI234
I0
sI206
I0
sI48
I0
sI120
I0
sI254
I0
sa(dp33
I265
I0
sI38
I0
sa(dp34
I185
I0
sI39
I0
sag26
ag28
a(dp35
I42
I0
sI275
I0
sa(dp36
I43
I0
sI300
I0
sI77
I0
sag26
ag19
ag2
ag3
ag32
a(dp37
I262
I0
sI207
I0
sI49
I0
sI342
I0
sI87
I0
sI220
I0
sI126
I0
sag23
a(dp38
I297
I0
sI51
I0
sa(dp39
I52
I0
sI159
I0
sag21
a(dp40
I105
I0
sI315
I0
sI310
I0
sI54
I0
sag19
ag29
a(dp41
I57
I0
sI235
I0
sI198
I0
sa(dp42
I192
I0
sI58
I0
sI236
I0
sa(dp43
I88
I0
sI153
I0
sI331
I0
sI59
I0
sI294
I0
sa(dp44
I160
I0
sI296
I0
sI173
I0
sI116
I0
sI215
I0
sI60
I0
sI127
I0
sa(dp45
I121
I0
sI162
I0
sI100
I0
sI61
I0
sI341
I0
sag22
ag11
ag12
ag26
ag13
ag15
ag21
ag16
ag17
a(dp46
I169
I0
sI146
I0
sI327
I0
sI281
I0
sI71
I0
sa(dp47
I72
I0
sI83
I0
sag21
ag2
ag14
ag12
ag36
ag7
ag11
a(dp48
I166
I0
sI203
I0
sI80
I0
sI179
I0
sI190
I0
sI283
I0
sI158
I0
sI287
I0
sag13
a(dp49
I290
I0
sI170
I0
sI267
I0
sI82
I0
sI183
I0
sI282
I0
sag47
a(dp50
I320
I0
sI145
I0
sI84
I0
sa(dp51
I227
I0
sI272
I0
sI274
I0
sI147
I0
sI85
I0
sI344
I0
sag2
ag37
ag43
ag21
ag8
ag3
a(dp52
I144
I0
sI92
I0
sag12
a(dp53
I306
I0
sI330
I0
sI94
I0
sag13
ag15
a(dp54
I97
I0
sI115
I0
sI333
I0
sa(dp55
I98
I0
sI311
I0
sa(dp56
I99
I0
sI348
I0
sag45
ag12
a(dp57
I321
I0
sI102
I0
sag26
ag15
ag40
ag28
ag19
a(dp58
I208
I0
sI232
I0
sI155
I0
sI108
I0
sI163
I0
sag30
ag31
ag13
ag16
ag14
ag21
ag54
ag44
ag8
a(dp59
I161
I0
sI339
I0
sI118
I0
sag29
ag32
ag45
a(dp60
I226
I0
sI122
I0
sI157
I0
sI142
I0
sI238
I0
sa(dp61
I123
I0
sI343
I0
sag12
ag30
ag37
ag44
ag14
ag27
ag28
ag2
a(dp62
I242
I0
sI132
I0
sI245
I0
sag3
ag11
ag4
ag13
ag21
ag26
a(dp63
I258
I0
sI139
I0
sI187
I0
sag2
ag20
ag60
ag24
ag52
ag50
ag46
ag51
ag13
ag15
ag16
a(dp64
I222
I0
sI151
I0
sag13
ag43
ag15
ag58
ag29
ag60
ag48
ag39
ag44
ag59
ag45
ag58
ag9
ag10
ag48
ag13
ag15
ag46
ag49
ag14
ag18
ag44
ag16
a(dp65
I305
I0
sI182
I0
sI175
I0
sag24
ag25
a(dp66
I178
I0
sI323
I0
sI246
I0
sag48
ag15
a(dp67
I259
I0
sI181
I0
sI349
I0
sag65
ag49
ag14
ag34
ag6
ag63
ag2
ag19
ag48
a(dp68
I273
I0
sI191
I0
sag42
ag19
ag7
a(dp69
I195
I0
sI252
I0
sa(dp70
I219
I0
sI196
I0
sa(dp71
I291
I0
sI197
I0
sI350
I0
sag41
ag26
ag15
ag16
ag2
ag48
a(dp72
I324
I0
sI243
I0
sI204
I0
sI214
I0
sI345
I0
sag13
ag32
ag37
ag58
ag12
ag1
ag14
ag20
a(dp73
I268
I0
sI213
I0
sI239
I0
sag72
ag44
ag16
ag24
ag2
ag70
ag37
ag11
ag64
ag13
ag15
ag32
ag60
ag51
a(dp74
I346
I0
sI228
I0
sI247
I0
sag21
ag14
a(dp75
I303
I0
sI231
I0
sag58
ag8
ag32
ag41
ag42
ag12
ag60
ag73
ag5
ag17
ag62
ag72
a(dp76
I244
I0
sI302
I0
sag62
ag66
ag74
ag13
a(dp77
I249
I0
sag16
ag14
ag69
ag7
ag32
ag11
ag31
ag27
ag63
ag67
ag14
a(dp78
I261
I0
sI293
I0
sag37
ag15
ag21
ag33
a(dp79
I266
I0
sI314
I0
sag49
ag73
a(dp80
I269
I0
sI319
I0
sa(dp81
I298
I0
sI270
I0
sag14
ag51
ag68
ag51
ag35
ag16
ag14
ag13
ag15
ag16
ag46
ag49
ag48
ag13
ag15
ag21
ag48
ag15
ag21
ag49
ag71
ag21
ag78
ag43
ag13
ag44
ag38
ag81
ag18
ag36
ag26
ag76
ag75
ag16
ag65
ag53
ag26
ag13
ag15
ag40
ag55
ag19
ag2
ag79
ag40
ag16
ag14
ag14
ag80
ag50
ag57
ag2
ag66
ag72
ag26
ag3
ag46
ag22
ag25
ag53
ag43
ag21
ag54
ag14
ag12
ag13
ag15
ag8
ag59
ag17
ag45
ag37
ag61
ag51
ag72
ag74
ag17
ag56
ag67
ag71
a.(lp0
(dp1
I0
I0
sI1
I0
sI2
I0
sI3
I0
sag1
ag1
ag1
a(dp2
I4
I0
sI5
I0
sI6
I0
sI7
I0
sI8
I0
sI9
I0
sI10
I0
sI11
I0
sI12
I0
sag2
ag2
ag2
ag2
ag2
ag2
ag2
ag2
a(dp3
I13
I0
sI14
I0
sag3
a(dp4
I16
I0
sI17
I0
sI18
I0
sI19
I0
sI15
I0
sag4
ag4
ag4
ag4
a(dp5
I20
I0
sa(dp6
I21
I0
sa(dp7
I22
I0
sI23
I0
sI24
I0
sI25
I0
sI26
I0
sI27
I0
sag7
ag7
ag7
ag7
ag7
a(dp8
I32
I0
sI33
I0
sI34
I0
sI35
I0
sI28
I0
sI29
I0
sI30
I0
sI31
I0
sag8
ag8
ag8
ag8
ag8
ag8
ag8
a(dp9
I36
I0
sa(dp10
I37
I0
sI38
I0
sag10
a(dp11
I39
I0
sa(dp12
I40
I0
sI41
I0
sI42
I0
sag12
ag12
a(dp13
I43
I0
sI44
I0
sI45
I0
sI46
I0
sI47
I0
sag13
ag13
ag13
ag13
a(dp14
I48
I0
sI49
I0
sag14
a(dp15
I50
I0
sa(dp16
I51
I0
sI52
I0
sI53
I0
sI54
I0
sI55
I0
sI56
I0
sI57
I0
sI58
I0
sag16
ag16
ag16
ag16
ag16
ag16
ag16
a(dp17
I64
I0
sI59
I0
sI60
I0
sI61
I0
sI62
I0
sI63
I0
sag17
ag17
ag17
ag17
ag17
a(dp18
I65
I0
sI66
I0
sI67
I0
sI68
I0
sI69
I0
sI70
I0
sI71
I0
sag18
ag18
ag18
ag18
ag18
ag18
a(dp19
I72
I0
sI73
I0
sI74
I0
sI75
I0
sI76
I0
sag19
ag19
ag19
ag19
a(dp20
I77
I0
sI78
I0
sI79
I0
sag20
ag20
a(dp21
I80
I0
sa(dp22
I81
I0
sI82
I0
sag22
a(dp23
I83
I0
sI84
I0
sI85
I0
sag23
ag23
a(dp24
I86
I0
sa(dp25
I87
I0
sa(dp26
I88
I0
sI89
I0
sI90
I0
sI91
I0
sI92
I0
sI93
I0
sag26
ag26
ag26
ag26
ag26
a(dp27
I96
I0
sI97
I0
sI98
I0
sI99
I0
sI100
I0
sI101
I0
sI94
I0
sI95
I0
sag27
ag27
ag27
ag27
ag27
ag27
ag27
a(dp28
I102
I0
sa(dp29
I103
I0
sI104
I0
sI105
I0
sI106
I0
sI107
I0
sI108
I0
sI109
I0
sI110
I0
sag29
ag29
ag29
ag29
ag29
ag29
ag29
a(dp30
I112
I0
sI113
I0
sI111
I0
sag30
ag30
a(dp31
I114
I0
sI115
I0
sI116
I0
sI117
I0
sI118
I0
sI119
I0
sI120
I0
sI121
I0
sI122
I0
sI123
I0
sI124
I0
sI125
I0
sag31
ag31
ag31
ag31
ag31
ag31
ag31
ag31
ag31
ag31
ag31
a(dp32
I126
I0
sa(dp33
I128
I0
sI127
I0
sag33
a(dp34
I129
I0
sI130
I0
sI131
I0
sI132
I0
sI133
I0
sI134
I0
sI135
I0
sag34
ag34
ag34
ag34
ag34
ag34
a(dp35
I136
I0
sI137
I0
sag35
a(dp36
I138
I0
sI139
I0
sI140
I0
sag36
ag36
a(dp37
I141
I0
sI142
I0
sI143
I0
sag37
ag37
a(dp38
I144
I0
sa(dp39
I145
I0
sI146
I0
sI147
I0
sag39
ag39
a(dp40
I148
I0
sI149
I0
sI150
I0
sag40
ag40
a(dp41
I151
I0
sa(dp42
I152
I0
sI153
I0
sI154
I0
sI155
I0
sag42
ag42
ag42
a(dp43
I156
I0
sI157
I0
sag43
a(dp44
I160
I0
sI161
I0
sI162
I0
sI163
I0
sI158
I0
sI159
I0
sag44
ag44
ag44
ag44
ag44
a(dp45
I164
I0
sI165
I0
sag45
a(dp46
I166
I0
sI167
I0
sI168
I0
sI169
I0
sI170
I0
sI171
I0
sI172
I0
sag46
ag46
ag46
ag46
ag46
ag46
a(dp47
I173
I0
sI174
I0
sI175
I0
sI176
I0
sI177
I0
sI178
I0
sag47
ag47
ag47
ag47
ag47
a(dp48
I179
I0
sI180
I0
sI181
I0
sI182
I0
sI183
I0
sI184
I0
sag48
ag48
ag48
ag48
ag48
a(dp49
I185
I0
sa(dp50
I186
I0
sI187
I0
sI188
I0
sag50
ag50
a(dp51
I189
I0
sa(dp52
I190
I0
sa(dp53
I192
I0
sI191
I0
sag53
a(dp54
I193
I0
sa(dp55
I194
I0
sI195
I0
sI196
I0
sI197
I0
sI198
I0
sag55
ag55
ag55
ag55
a(dp56
I200
I0
sI201
I0
sI202
I0
sI199
I0
sag56
ag56
ag56
a(dp57
I203
I0
sI204
I0
sI205
I0
sag57
ag57
a(dp58
I208
I0
sI209
I0
sI206
I0
sI207
I0
sag58
ag58
ag58
a(dp59
I210
I0
sa(dp60
I211
I0
sa(dp61
I212
I0
sI213
I0
sI214
I0
sI215
I0
sI216
I0
sI217
I0
sag61
ag61
ag61
ag61
ag61
a(dp62
I218
I0
sI219
I0
sI220
I0
sI221
I0
sag62
ag62
ag62
a(dp63
I224
I0
sI225
I0
sI226
I0
sI227
I0
sI222
I0
sI223
I0
sag63
ag63
ag63
ag63
ag63
a(dp64
I228
I0
sa(dp65
I229
I0
sI230
I0
sag65
a(dp66
I232
I0
sI231
I0
sag66
a(dp67
I233
I0
sI234
I0
sI235
I0
sI236
I0
sI237
I0
sag67
ag67
ag67
ag67
a(dp68
I238
I0
sa(dp69
I240
I0
sI241
I0
sI242
I0
sI239
I0
sag69
ag69
ag69
a(dp70
I243
I0
sa(dp71
I244
I0
sI245
I0
sI246
I0
sag71
ag71
a(dp72
I247
I0
sa(dp73
I248
I0
sI249
I0
sI250
I0
sI251
I0
sag73
ag73
ag73
a(dp74
I252
I0
sa(dp75
I256
I0
sI253
I0
sI254
I0
sI255
I0
sag75
ag75
ag75
a(dp76
I257
I0
sI258
I0
sag76
a(dp77
I259
I0
sI260
I0
sag77
a(dp78
I261
I0
sa(dp79
I262
I0
sa(dp80
I264
I0
sI263
I0
sag80
a(dp81
I265
I0
sa(dp82
I266
I0
sa(dp83
I267
I0
sa(dp84
I272
I0
sI268
I0
sI269
I0
sI270
I0
sI271
I0
sag84
ag84
ag84
ag84
a(dp85
I273
I0
sI274
I0
sI275
I0
sag85
ag85
a(dp86
I276
I0
sI277
I0
sag86
a(dp87
I280
I0
sI281
I0
sI282
I0
sI278
I0
sI279
I0
sag87
ag87
ag87
ag87
a(dp88
I283
I0
sI284
I0
sI285
I0
sI286
I0
sag88
ag88
ag88
a(dp89
I288
I0
sI289
I0
sI290
I0
sI291
I0
sI287
I0
sag89
ag89
ag89
ag89
a(dp90
I292
I0
sa(dp91
I293
I0
sa(dp92
I294
I0
sa(dp93
I296
I0
sI295
I0
sag93
a(dp94
I297
I0
sI298
I0
sag94
a(dp95
I299
I0
sa(dp96
I300
I0
sa(dp97
I301
I0
sI302
I0
sag97
a(dp98
I304
I0
sI305
I0
sI303
I0
sag98
ag98
a(dp99
I306
I0
sI307
I0
sI308
I0
sI309
I0
sI310
I0
sI311
I0
sI312
I0
sI313
I0
sI314
I0
sag99
ag99
ag99
ag99
ag99
ag99
ag99
ag99
a(dp100
I315
I0
sI316
I0
sI317
I0
sag100
ag100
a(dp101
I318
I0
sa(dp102
I320
I0
sI321
I0
sI322
I0
sI323
I0
sI319
I0
sag102
ag102
ag102
ag102
a(dp103
I324
I0
sa(dp104
I325
I0
sa(dp105
I326
I0
sa(dp106
I328
I0
sI329
I0
sI327
I0
sag106
ag106
a(dp107
I330
I0
sI331
I0
sI332
I0
sI333
I0
sI334
I0
sI335
I0
sag107
ag107
ag107
ag107
ag107
a(dp108
I336
I0
sI337
I0
sI338
I0
sI339
I0
sI340
I0
sI341
I0
sI342
I0
sI343
I0
sI344
I0
sag108
ag108
ag108
ag108
ag108
ag108
ag108
ag108
a(dp109
I345
I0
sI346
I0
sI347
I0
sI348
I0
sag109
ag109
ag109
a(dp110
I349
I0
sI350
I0
sag110
a.